; Function Attrs: mustprogress nounwind uwtable
define dso_local void @_ZN5clang5index22generateUSRForObjCIvarEN4llvm9StringRefERNS1_11raw_ostreamE(ptr %0, i64 %1, ptr noundef nonnull align 8 dereferenceable(48) %2) local_unnamed_addr #0 {
  %4 = getelementptr inbounds nuw i8, ptr %2, i64 32
  %5 = load ptr, ptr %4, align 8
  %6 = getelementptr inbounds nuw i8, ptr %2, i64 24
  %7 = load ptr, ptr %6, align 8
  %.not.i = icmp ult ptr %5, %7
  br i1 %.not.i, label %10, label %8

8:                                                ; preds = %3
  %9 = tail call noundef nonnull align 8 dereferenceable(48) ptr @_ZN4llvm11raw_ostream5writeEh(ptr noundef nonnull align 8 dereferenceable(48) %2, i8 noundef zeroext 64) #14
  br label %_ZN4llvm11raw_ostreamlsEc.exit

10:                                               ; preds = %3
  %11 = getelementptr inbounds nuw i8, ptr %5, i64 1
  store ptr %11, ptr %4, align 8
  store i8 64, ptr %5, align 1
  br label %_ZN4llvm11raw_ostreamlsEc.exit

_ZN4llvm11raw_ostreamlsEc.exit:                   ; preds = %8, %10
  %.0.i = phi ptr [ %9, %8 ], [ %2, %10 ]
  %12 = getelementptr inbounds nuw i8, ptr %.0.i, i64 24
  %13 = load ptr, ptr %12, align 8
  %14 = getelementptr inbounds nuw i8, ptr %.0.i, i64 32
  %15 = load ptr, ptr %14, align 8
  %16 = ptrtoint ptr %13 to i64
  %17 = ptrtoint ptr %15 to i64
  %18 = sub i64 %16, %17
  %19 = icmp ugt i64 %1, %18
  br i1 %19, label %20, label %22

20:                                               ; preds = %_ZN4llvm11raw_ostreamlsEc.exit
  %21 = tail call noundef nonnull align 8 dereferenceable(48) ptr @_ZN4llvm11raw_ostream5writeEPKcm(ptr noundef nonnull align 8 dereferenceable(48) %.0.i, ptr noundef %0, i64 noundef %1) #14
  br label %_ZN4llvm11raw_ostreamlsENS_9StringRefE.exit

22:                                               ; preds = %_ZN4llvm11raw_ostreamlsEc.exit
  %.not.i3 = icmp eq i64 %1, 0
  br i1 %.not.i3, label %_ZN4llvm11raw_ostreamlsENS_9StringRefE.exit, label %23

23:                                               ; preds = %22
  tail call void @llvm.memcpy.p0.p0.i64(ptr align 1 %15, ptr align 1 %0, i64 %1, i1 false)
  %24 = load ptr, ptr %14, align 8
  %25 = getelementptr inbounds i8, ptr %24, i64 %1
  store ptr %25, ptr %14, align 8
  br label %_ZN4llvm11raw_ostreamlsENS_9StringRefE.exit

_ZN4llvm11raw_ostreamlsENS_9StringRefE.exit:      ; preds = %20, %22, %23
  ret void
}